Certificate:
    Data:
        Version: 3 (0x2)
        Serial Number: 1 (0x1)
        Signature Algorithm: sha256WithRSAEncryption
        Issuer: C=GR, ST=Some-State, O=IHU, CN=Lazaros
        Validity
            Not Before: Jan 11 14:14:44 2025 GMT
            Not After : Jan 11 14:14:44 2026 GMT
        Subject: C=GR, ST=Some-State, O=IHU, CN=Lazaros/emailAddress=lpapakostas@ihu.edu.gr
        Subject Public Key Info:
            Public Key Algorithm: rsaEncryption
                Public-Key: (2048 bit)
                Modulus:
                    00:cd:2c:ce:f3:2e:ef:13:98:44:a2:4a:a9:90:df:
                    87:aa:28:e8:98:d3:2f:e3:46:44:12:3f:99:f7:bd:
                    11:7b:67:41:cd:d8:4a:f6:de:bd:75:6f:31:1a:09:
                    ce:de:aa:98:b6:4d:f0:43:57:35:bf:0d:ad:54:63:
                    ad:c4:e9:0d:da:be:eb:62:c8:eb:a7:d5:cf:4a:e9:
                    b7:ab:1c:a9:79:46:0f:30:70:12:56:30:48:24:4b:
                    b1:28:87:bb:b5:e7:cc:d9:56:ee:ba:09:4c:df:d5:
                    14:cf:5f:4b:a1:de:f3:36:22:8c:b6:e0:6f:61:47:
                    2d:d5:2c:b7:b5:73:1f:cd:7d:b4:40:3d:67:a8:81:
                    cb:90:0f:8b:d3:16:74:40:37:f9:30:fa:ff:3e:e7:
                    71:d7:82:e1:c0:79:91:46:f0:48:ca:72:8b:b9:b6:
                    1b:3b:56:fc:b7:3a:6f:e2:67:0a:85:28:3d:c0:20:
                    8a:ca:2a:6d:3e:32:86:6c:98:3a:6a:58:ad:cd:4a:
                    39:5f:c3:6b:9b:58:c5:42:7f:1f:f1:92:a5:59:83:
                    93:45:9a:52:69:c7:62:bf:9e:e0:de:09:75:c0:e7:
                    c7:67:58:2a:bd:dd:3f:af:c7:65:fb:b8:b8:9b:f3:
                    4d:b5:33:4c:30:8e:ed:00:62:b4:90:3b:d2:d2:7b:
                    53:07
                Exponent: 65537 (0x10001)
        X509v3 extensions:
            X509v3 Basic Constraints: 
                CA:FALSE
            X509v3 Subject Key Identifier: 
                A8:64:32:F2:CB:34:7C:5F:69:86:E0:12:23:C9:16:DB:8B:CA:5D:7B
            X509v3 Authority Key Identifier: 
                B8:FE:4C:AB:49:6D:C0:9B:DC:6A:A0:B6:94:BE:58:13:97:4F:1F:CD
    Signature Algorithm: sha256WithRSAEncryption
    Signature Value:
        5e:c2:31:cd:37:50:49:77:2b:a7:df:4b:51:bb:51:c0:ac:b7:
        19:ef:3b:4b:32:98:07:3a:b8:dd:13:e8:7a:d9:81:b8:89:f9:
        64:aa:d2:32:77:31:7d:e5:09:01:d0:fa:72:df:e7:2d:09:0d:
        2d:d1:69:f6:1e:89:7a:e9:55:4c:32:41:aa:47:18:35:a0:0c:
        7a:bc:50:de:7f:46:61:45:e7:44:80:0a:94:2c:57:d4:44:17:
        6f:27:a7:b4:bc:2c:4b:20:39:d0:96:04:3f:9c:32:44:22:3f:
        89:34:37:7b:2e:3c:6b:75:d1:1d:b1:35:ec:16:b6:76:4f:3f:
        26:7c:76:95:1a:04:60:4d:2a:b7:2e:04:87:a0:1f:3d:a8:30:
        4d:a8:4c:0d:bc:d1:3c:fe:c1:b9:f1:72:7f:a8:3b:42:2b:06:
        a2:94:31:86:c7:3b:d7:99:af:ba:04:48:3d:1d:d3:4b:32:fc:
        dc:91:cb:b3:cd:45:9d:c8:5c:5b:9a:a8:93:1c:35:51:29:04:
        8e:bf:d6:06:15:43:eb:4e:14:af:23:96:e7:1c:7c:a9:df:23:
        26:17:ba:43:aa:88:77:5e:bd:37:f0:31:58:98:9e:bd:8c:aa:
        41:78:df:8e:a3:55:57:80:d2:e2:da:4c:4f:6f:cf:67:99:ff:
        67:60:c4:2d
-----BEGIN CERTIFICATE-----
MIIDczCCAlugAwIBAgIBATANBgkqhkiG9w0BAQsFADBCMQswCQYDVQQGEwJHUjET
MBEGA1UECAwKU29tZS1TdGF0ZTEMMAoGA1UECgwDSUhVMRAwDgYDVQQDDAdMYXph
cm9zMB4XDTI1MDExMTE0MTQ0NFoXDTI2MDExMTE0MTQ0NFowaTELMAkGA1UEBhMC
R1IxEzARBgNVBAgMClNvbWUtU3RhdGUxDDAKBgNVBAoMA0lIVTEQMA4GA1UEAwwH
TGF6YXJvczElMCMGCSqGSIb3DQEJARYWbHBhcGFrb3N0YXNAaWh1LmVkdS5ncjCC
ASIwDQYJKoZIhvcNAQEBBQADggEPADCCAQoCggEBAM0szvMu7xOYRKJKqZDfh6oo
6JjTL+NGRBI/mfe9EXtnQc3YSvbevXVvMRoJzt6qmLZN8ENXNb8NrVRjrcTpDdq+
62LI66fVz0rpt6scqXlGDzBwElYwSCRLsSiHu7XnzNlW7roJTN/VFM9fS6He8zYi
jLbgb2FHLdUst7VzH819tEA9Z6iBy5APi9MWdEA3+TD6/z7ncdeC4cB5kUbwSMpy
i7m2GztW/Lc6b+JnCoUoPcAgisoqbT4yhmyYOmpYrc1KOV/Da5tYxUJ/H/GSpVmD
k0WaUmnHYr+e4N4JdcDnx2dYKr3dP6/HZfu4uJvzTbUzTDCO7QBitJA70tJ7UwcC
AwEAAaNNMEswCQYDVR0TBAIwADAdBgNVHQ4EFgQUqGQy8ss0fF9phuASI8kW24vK
XXswHwYDVR0jBBgwFoAUuP5Mq0ltwJvcaqC2lL5YE5dPH80wDQYJKoZIhvcNAQEL
BQADggEBAF7CMc03UEl3K6ffS1G7UcCstxnvO0symAc6uN0T6HrZgbiJ+WSq0jJ3
MX3lCQHQ+nLf5y0JDS3RafYeiXrpVUwyQapHGDWgDHq8UN5/RmFF50SACpQsV9RE
F28np7S8LEsgOdCWBD+cMkQiP4k0N3suPGt10R2xNewWtnZPPyZ8dpUaBGBNKrcu
BIegHz2oME2oTA280Tz+wbnxcn+oO0IrBqKUMYbHO9eZr7oESD0d00sy/NyRy7PN
RZ3IXFuaqJMcNVEpBI6/1gYVQ+tOFK8jluccfKnfIyYXukOqiHdevTfwMViYnr2M
qkF4346jVVeA0uLaTE9vz2eZ/2dgxC0=
-----END CERTIFICATE-----
